target datalayout = "e-m:e-p270:32:32-p271:32:32-p272:64:64-i64:64-i128:128-f80:128-n8:16:32:64-S128"
target triple = "x86_64-pc-linux-gnu"

; Function Attrs: nounwind uwtable
define internal void @compute_weights_line_c(ptr noundef %0, ptr noundef %1, ptr noundef %2, ptr noundef %3, ptr noundef %4, ptr noundef %5, ptr noundef %6, ptr noundef %7, i32 noundef %8, i32 noundef %9, i32 noundef %10) #1 {
  %12 = alloca ptr, align 8
  %13 = alloca ptr, align 8
  %14 = alloca ptr, align 8
  %15 = alloca ptr, align 8
  %16 = alloca ptr, align 8
  %17 = alloca ptr, align 8
  %18 = alloca ptr, align 8
  %19 = alloca ptr, align 8
  %20 = alloca i32, align 4
  %21 = alloca i32, align 4
  %22 = alloca i32, align 4
  %23 = alloca i32, align 4
  %24 = alloca i32, align 4
  %25 = alloca i32, align 4
  %26 = alloca i32, align 4
  %27 = alloca i32, align 4
  %28 = alloca i32, align 4
  %29 = alloca float, align 4
  store ptr %0, ptr %12, align 8, !tbaa !83
  store ptr %1, ptr %13, align 8, !tbaa !83
  store ptr %2, ptr %14, align 8, !tbaa !83
  store ptr %3, ptr %15, align 8, !tbaa !83
  store ptr %4, ptr %16, align 8, !tbaa !66
  store ptr %5, ptr %17, align 8, !tbaa !101
  store ptr %6, ptr %18, align 8, !tbaa !101
  store ptr %7, ptr %19, align 8, !tbaa !101
  store i32 %8, ptr %20, align 4, !tbaa !35
  store i32 %9, ptr %21, align 4, !tbaa !35
  store i32 %10, ptr %22, align 4, !tbaa !35
  call void @llvm.lifetime.start.p0(i64 4, ptr %23) #10
  %30 = load i32, ptr %21, align 4, !tbaa !35
  store i32 %30, ptr %23, align 4, !tbaa !35
  br label %31

31:                                               ; preds = %104, %11
  %32 = load i32, ptr %23, align 4, !tbaa !35
  %33 = load i32, ptr %22, align 4, !tbaa !35
  %34 = icmp slt i32 %32, %33
  br i1 %34, label %36, label %35

35:                                               ; preds = %31
  call void @llvm.lifetime.end.p0(i64 4, ptr %23) #10
  br label %107

36:                                               ; preds = %31
  call void @llvm.lifetime.start.p0(i64 4, ptr %24) #10
  %37 = load ptr, ptr %12, align 8, !tbaa !83
  %38 = load i32, ptr %23, align 4, !tbaa !35
  %39 = sext i32 %38 to i64
  %40 = getelementptr inbounds i32, ptr %37, i64 %39
  %41 = load i32, ptr %40, align 4, !tbaa !35
  store i32 %41, ptr %24, align 4, !tbaa !35
  call void @llvm.lifetime.start.p0(i64 4, ptr %25) #10
  %42 = load ptr, ptr %13, align 8, !tbaa !83
  %43 = load i32, ptr %23, align 4, !tbaa !35
  %44 = sext i32 %43 to i64
  %45 = getelementptr inbounds i32, ptr %42, i64 %44
  %46 = load i32, ptr %45, align 4, !tbaa !35
  store i32 %46, ptr %25, align 4, !tbaa !35
  call void @llvm.lifetime.start.p0(i64 4, ptr %26) #10
  %47 = load ptr, ptr %14, align 8, !tbaa !83
  %48 = load i32, ptr %23, align 4, !tbaa !35
  %49 = sext i32 %48 to i64
  %50 = getelementptr inbounds i32, ptr %47, i64 %49
  %51 = load i32, ptr %50, align 4, !tbaa !35
  store i32 %51, ptr %26, align 4, !tbaa !35
  call void @llvm.lifetime.start.p0(i64 4, ptr %27) #10
  %52 = load ptr, ptr %15, align 8, !tbaa !83
  %53 = load i32, ptr %23, align 4, !tbaa !35
  %54 = sext i32 %53 to i64
  %55 = getelementptr inbounds i32, ptr %52, i64 %54
  %56 = load i32, ptr %55, align 4, !tbaa !35
  store i32 %56, ptr %27, align 4, !tbaa !35
  call void @llvm.lifetime.start.p0(i64 4, ptr %28) #10
  %57 = load i32, ptr %27, align 4, !tbaa !35
  %58 = load i32, ptr %26, align 4, !tbaa !35
  %59 = sub i32 %57, %58
  %60 = load i32, ptr %25, align 4, !tbaa !35
  %61 = sub i32 %59, %60
  %62 = load i32, ptr %24, align 4, !tbaa !35
  %63 = add i32 %61, %62
  %64 = load i32, ptr %20, align 4, !tbaa !35
  %65 = icmp ugt i32 %63, %64
  br i1 %65, label %66, label %68

66:                                               ; preds = %36
  %67 = load i32, ptr %20, align 4, !tbaa !35
  br label %76

68:                                               ; preds = %36
  %69 = load i32, ptr %27, align 4, !tbaa !35
  %70 = load i32, ptr %26, align 4, !tbaa !35
  %71 = sub i32 %69, %70
  %72 = load i32, ptr %25, align 4, !tbaa !35
  %73 = sub i32 %71, %72
  %74 = load i32, ptr %24, align 4, !tbaa !35
  %75 = add i32 %73, %74
  br label %76

76:                                               ; preds = %68, %66
  %77 = phi i32 [ %67, %66 ], [ %75, %68 ]
  store i32 %77, ptr %28, align 4, !tbaa !35
  call void @llvm.lifetime.start.p0(i64 4, ptr %29) #10
  %78 = load ptr, ptr %19, align 8, !tbaa !101
  %79 = load i32, ptr %28, align 4, !tbaa !35
  %80 = zext i32 %79 to i64
  %81 = getelementptr inbounds nuw float, ptr %78, i64 %80
  %82 = load float, ptr %81, align 4, !tbaa !36
  store float %82, ptr %29, align 4, !tbaa !36
  %83 = load float, ptr %29, align 4, !tbaa !36
  %84 = load ptr, ptr %17, align 8, !tbaa !101
  %85 = load i32, ptr %23, align 4, !tbaa !35
  %86 = sext i32 %85 to i64
  %87 = getelementptr inbounds float, ptr %84, i64 %86
  %88 = load float, ptr %87, align 4, !tbaa !36
  %89 = fadd nsz float %88, %83
  store float %89, ptr %87, align 4, !tbaa !36
  %90 = load float, ptr %29, align 4, !tbaa !36
  %91 = load ptr, ptr %16, align 8, !tbaa !66
  %92 = load i32, ptr %23, align 4, !tbaa !35
  %93 = sext i32 %92 to i64
  %94 = getelementptr inbounds i8, ptr %91, i64 %93
  %95 = load i8, ptr %94, align 1, !tbaa !104
  %96 = zext i8 %95 to i32
  %97 = sitofp i32 %96 to float
  %98 = load ptr, ptr %18, align 8, !tbaa !101
  %99 = load i32, ptr %23, align 4, !tbaa !35
  %100 = sext i32 %99 to i64
  %101 = getelementptr inbounds float, ptr %98, i64 %100
  %102 = load float, ptr %101, align 4, !tbaa !36
  %103 = call nsz float @llvm.fmuladd.f32(float %90, float %97, float %102)
  store float %103, ptr %101, align 4, !tbaa !36
  call void @llvm.lifetime.end.p0(i64 4, ptr %29) #10
  call void @llvm.lifetime.end.p0(i64 4, ptr %28) #10
  call void @llvm.lifetime.end.p0(i64 4, ptr %27) #10
  call void @llvm.lifetime.end.p0(i64 4, ptr %26) #10
  call void @llvm.lifetime.end.p0(i64 4, ptr %25) #10
  call void @llvm.lifetime.end.p0(i64 4, ptr %24) #10
  br label %104

104:                                              ; preds = %76
  %105 = load i32, ptr %23, align 4, !tbaa !35
  %106 = add nsw i32 %105, 1
  store i32 %106, ptr %23, align 4, !tbaa !35
  br label %31, !llvm.loop !111

107:                                              ; preds = %35
  ret void
}