; Function Attrs: nofree norecurse nosync nounwind memory(argmem: readwrite) uwtable
define internal void @compute_weights_line_c(ptr noundef readonly captures(none) %0, ptr noundef readonly captures(none) %1, ptr noundef readonly captures(none) %2, ptr noundef readonly captures(none) %3, ptr noundef readonly captures(none) %4, ptr noundef captures(none) %5, ptr noundef captures(none) %6, ptr noundef readonly captures(none) %7, i32 noundef %8, i32 noundef %9, i32 noundef %10) #7 {
  %12 = icmp slt i32 %9, %10
  br i1 %12, label %.lr.ph.preheader, label %._crit_edge

.lr.ph.preheader:                                 ; preds = %11
  %13 = sext i32 %9 to i64
  %wide.trip.count = sext i32 %10 to i64
  br label %.lr.ph

._crit_edge:                                      ; preds = %.lr.ph, %11
  ret void

.lr.ph:                                           ; preds = %.lr.ph.preheader, %.lr.ph
  %indvars.iv = phi i64 [ %13, %.lr.ph.preheader ], [ %indvars.iv.next, %.lr.ph ]
  %14 = getelementptr inbounds i32, ptr %0, i64 %indvars.iv
  %15 = load i32, ptr %14, align 4, !tbaa !61
  %16 = getelementptr inbounds i32, ptr %1, i64 %indvars.iv
  %17 = load i32, ptr %16, align 4, !tbaa !61
  %18 = getelementptr inbounds i32, ptr %2, i64 %indvars.iv
  %19 = load i32, ptr %18, align 4, !tbaa !61
  %20 = getelementptr inbounds i32, ptr %3, i64 %indvars.iv
  %21 = load i32, ptr %20, align 4, !tbaa !61
  %22 = add i32 %17, %19
  %23 = sub i32 %15, %22
  %24 = add i32 %23, %21
  %. = tail call i32 @llvm.umin.i32(i32 %24, i32 %8)
  %25 = zext i32 %. to i64
  %26 = getelementptr inbounds nuw float, ptr %7, i64 %25
  %27 = load float, ptr %26, align 4, !tbaa !31
  %28 = getelementptr inbounds float, ptr %5, i64 %indvars.iv
  %29 = load float, ptr %28, align 4, !tbaa !31
  %30 = fadd nsz float %27, %29
  store float %30, ptr %28, align 4, !tbaa !31
  %31 = getelementptr inbounds i8, ptr %4, i64 %indvars.iv
  %32 = load i8, ptr %31, align 1, !tbaa !68
  %33 = uitofp i8 %32 to float
  %34 = getelementptr inbounds float, ptr %6, i64 %indvars.iv
  %35 = load float, ptr %34, align 4, !tbaa !31
  %36 = tail call nsz float @llvm.fmuladd.f32(float %27, float %33, float %35)
  store float %36, ptr %34, align 4, !tbaa !31
  %indvars.iv.next = add nsw i64 %indvars.iv, 1
  %exitcond.not = icmp eq i64 %indvars.iv.next, %wide.trip.count
  br i1 %exitcond.not, label %._crit_edge, label %.lr.ph, !llvm.loop !97
}